Certificate:
    Data:
        Version: 1 (0x0)
        Serial Number:
            26:27:e7:79:b7:4b:6e:a0:63:f0:92:58:40:ef:23:0a:6a:13:b4:13
        Signature Algorithm: NULL
        Issuer: CN = root.graphmarket.com
        Validity
            Not Before: May 17 08:57:23 2021 GMT
            Not After : May 15 08:57:23 2031 GMT
        Subject: CN = root.graphmarket.com
        Subject Public Key Info:
            Public Key Algorithm: rsaEncryption
                RSA Public-Key: (2048 bit)
                Modulus:
                    00:b3:b5:6d:de:13:84:01:bb:2e:ef:20:8b:2c:9f:
                    6c:b2:d8:a5:ee:70:36:cc:0b:aa:04:0c:53:2d:57:
                    3b:ed:0d:e3:9b:80:88:c8:47:e3:13:0b:fa:4c:55:
                    5d:97:e3:81:bd:ec:12:08:3a:ee:d0:2a:d6:70:ac:
                    c9:3c:a9:0b:15:9b:c0:67:59:78:f0:97:07:95:57:
                    e5:a9:5a:dd:8c:8b:57:30:7a:5f:0a:a9:be:c2:53:
                    d8:ef:f7:2e:d2:bb:6f:d6:b6:63:c5:15:ae:e2:f7:
                    fe:5b:a8:1e:33:c5:b7:7a:ad:38:0d:ec:29:a4:35:
                    1f:f5:e2:17:5b:64:98:38:73:20:3a:b3:71:3d:3c:
                    4f:60:f4:b0:dd:6d:28:ff:77:02:a6:a8:7c:93:f6:
                    1e:75:f1:d5:ba:71:45:6d:fe:71:6d:e0:45:c7:91:
                    eb:81:63:b8:1f:8a:74:30:2f:c2:7f:65:f3:de:b6:
                    29:72:b9:5d:b8:b1:ed:07:27:45:0d:de:0c:5f:81:
                    4d:65:c2:01:c0:cf:37:79:d2:50:07:25:b0:0e:60:
                    6f:9a:74:ed:fd:64:8c:d2:28:49:fe:88:78:9a:ec:
                    2a:71:bf:01:4e:7f:f1:0d:6c:44:69:b7:4e:20:95:
                    5a:27:e0:ae:b8:38:c5:ea:a6:4b:ae:4a:0e:9d:42:
                    e0:d7
                Exponent: 65537 (0x10001)
    Signature Algorithm: NULL
-----BEGIN CERTIFICATE-----
MIICxTCCAa0CFCYn53m3S26gY/CSWEDvIwpqE7QTMA0GCSqGSIb3DQEBCwUAMB8x
HTAbBgNVBAMMFHJvb3QuZ3JhcGhtYXJrZXQuY29tMB4XDTIxMDUxNzA4NTcyM1oX
DTMxMDUxNTA4NTcyM1owHzEdMBsGA1UEAwwUcm9vdC5ncmFwaG1hcmtldC5jb20w
ggEiMA0GCSqGSIb3DQEBAQUAA4IBDwAwggEKAoIBAQCztW3eE4QBuy7vIIssn2yy
2KXucDbMC6oEDFMtVzvtDeObgIjIR+MTC/pMVV2X44G97BIIOu7QKtZwrMk8qQsV
m8BnWXjwlweVV+WpWt2Mi1cwel8Kqb7CU9jv9y7Su2/WtmPFFa7i9/5bqB4zxbd6
rTgN7CmkNR/14hdbZJg4cyA6s3E9PE9g9LDdbSj/dwKmqHyT9h518dW6cUVt/nFt
4EXHkeuBY7gfinQwL8J/ZfPetilyuV24se0HJ0UN3gxfgU1lwgHAzzd50lAHJbAO
YG+adO39ZIzSKEn+iHia7CpxvwFOf/ENbERpt04glVon4K64OMXqpkuuSg6dQuDX
AgMBAAEwDQYJKoZIhvcNAQELBQADggEBAB11qqCw+sNu+V0QdngyJ6oq8VJfvjD8
JSdoJpHPZkaM9VmLQcOHP/aQiE1zuNh7PM49vHzXU7tk18wWG6m8umZTupxtaMdz
dqaVOIuLtdCJAuFqkqm5b4sbIbUoInIjTqDUcj6FqRv5monisWAd6kN8TbuK4P65
MnpL2t53yKJYsghKWW+qXzyyubXUaIgEapu3Ii5XOJOlgffM4oaNse+Uf8rePV9V
Wu7hwfmCewRJINilW3Ya4ge7HyFIt2tATjUeQC8RgsM0JTY/6uX+n/A4aeueLVLQ
H8F2F6HwBb74bjpMqKsJbQ+DkoWSB4//l+4piVZa4ca2D4IzShRN6so=
-----END CERTIFICATE-----
